target datalayout = "e-m:e-p270:32:32-p271:32:32-p272:64:64-i64:64-i128:128-f80:128-n8:16:32:64-S128"
target triple = "x86_64-pc-linux-gnu"

%struct.slabclass_t = type { i32, i32, ptr, i32, i32, ptr, i32 }
%union.pthread_mutex_t = type { %struct.__pthread_mutex_s }
%struct.__pthread_mutex_s = type { i32, i32, i32, i32, i32, i16, i16, %struct.__pthread_internal_list }
%struct.__pthread_internal_list = type { ptr, ptr }

@slabclass = internal global [64 x %struct.slabclass_t] zeroinitializer, align 16
@slabs_lock = internal global %union.pthread_mutex_t zeroinitializer, align 8
@slabs_pick_any_for_reassign.cur = internal global i32 0, align 4

; Function Attrs: nounwind uwtable
define dso_local i32 @slabs_pick_any_for_reassign(i32 noundef %0) #0 {
  %2 = alloca i32, align 4
  %3 = alloca i32, align 4
  %4 = alloca i32, align 4
  %5 = alloca i32, align 4
  store i32 %0, ptr %3, align 4, !tbaa !8
  %6 = call i32 @pthread_mutex_lock(ptr noundef @slabs_lock) #9
  call void @llvm.lifetime.start.p0(i64 4, ptr %4) #9
  store i32 64, ptr %4, align 4, !tbaa !8
  br label %7

7:                                                ; preds = %32, %1
  %8 = load i32, ptr %4, align 4, !tbaa !8
  %9 = icmp sgt i32 %8, 0
  br i1 %9, label %10, label %35

10:                                               ; preds = %7
  %11 = load i32, ptr @slabs_pick_any_for_reassign.cur, align 4, !tbaa !8
  %12 = add nsw i32 %11, 1
  store i32 %12, ptr @slabs_pick_any_for_reassign.cur, align 4, !tbaa !8
  %13 = load i32, ptr @slabs_pick_any_for_reassign.cur, align 4, !tbaa !8
  %14 = icmp sgt i32 %13, 64
  br i1 %14, label %15, label %16

15:                                               ; preds = %10
  store i32 1, ptr @slabs_pick_any_for_reassign.cur, align 4, !tbaa !8
  br label %16

16:                                               ; preds = %15, %10
  %17 = load i32, ptr @slabs_pick_any_for_reassign.cur, align 4, !tbaa !8
  %18 = load i32, ptr %3, align 4, !tbaa !8
  %19 = icmp eq i32 %17, %18
  br i1 %19, label %20, label %21

20:                                               ; preds = %16
  br label %32

21:                                               ; preds = %16
  %22 = load i32, ptr @slabs_pick_any_for_reassign.cur, align 4, !tbaa !8
  %23 = sext i32 %22 to i64
  %24 = getelementptr inbounds [64 x %struct.slabclass_t], ptr @slabclass, i64 0, i64 %23
  %25 = getelementptr inbounds nuw %struct.slabclass_t, ptr %24, i32 0, i32 4
  %26 = load i32, ptr %25, align 4, !tbaa !27
  %27 = icmp ugt i32 %26, 1
  br i1 %27, label %28, label %31

28:                                               ; preds = %21
  %29 = call i32 @pthread_mutex_unlock(ptr noundef @slabs_lock) #9
  %30 = load i32, ptr @slabs_pick_any_for_reassign.cur, align 4, !tbaa !8
  store i32 %30, ptr %2, align 4
  store i32 1, ptr %5, align 4
  br label %37

31:                                               ; preds = %21
  br label %32

32:                                               ; preds = %31, %20
  %33 = load i32, ptr %4, align 4, !tbaa !8
  %34 = add nsw i32 %33, -1
  store i32 %34, ptr %4, align 4, !tbaa !8
  br label %7, !llvm.loop !73

35:                                               ; preds = %7
  %36 = call i32 @pthread_mutex_unlock(ptr noundef @slabs_lock) #9
  store i32 -1, ptr %2, align 4
  store i32 1, ptr %5, align 4
  br label %37

37:                                               ; preds = %35, %28
  call void @llvm.lifetime.end.p0(i64 4, ptr %4) #9
  %38 = load i32, ptr %2, align 4
  ret i32 %38
}