; Function Attrs: nounwind uwtable
define dso_local i32 @slabs_pick_any_for_reassign(i32 noundef %0) local_unnamed_addr #4 {
  %2 = tail call i32 @pthread_mutex_lock(ptr noundef nonnull @slabs_lock) #21
  %slabs_pick_any_for_reassign.cur.promoted = load i32, ptr @slabs_pick_any_for_reassign.cur, align 4
  br label %3

3:                                                ; preds = %1, %15
  %.07 = phi i32 [ 64, %1 ], [ %16, %15 ]
  %spec.store.select56 = phi i32 [ %slabs_pick_any_for_reassign.cur.promoted, %1 ], [ %spec.store.select, %15 ]
  %4 = add nsw i32 %spec.store.select56, 1
  %5 = icmp sgt i32 %spec.store.select56, 63
  %spec.store.select = select i1 %5, i32 1, i32 %4
  %6 = icmp eq i32 %spec.store.select, %0
  br i1 %6, label %15, label %7

7:                                                ; preds = %3
  %8 = sext i32 %spec.store.select to i64
  %9 = getelementptr inbounds [64 x %struct.slabclass_t], ptr @slabclass, i64 0, i64 %8, i32 4
  %10 = load i32, ptr %9, align 4, !tbaa !13
  %11 = icmp ugt i32 %10, 1
  br i1 %11, label %12, label %15

12:                                               ; preds = %7
  store i32 %spec.store.select, ptr @slabs_pick_any_for_reassign.cur, align 4
  %13 = tail call i32 @pthread_mutex_unlock(ptr noundef nonnull @slabs_lock) #21
  %14 = load i32, ptr @slabs_pick_any_for_reassign.cur, align 4, !tbaa !17
  br label %20

15:                                               ; preds = %7, %3
  %16 = add nsw i32 %.07, -1
  %17 = icmp ugt i32 %.07, 1
  br i1 %17, label %3, label %18, !llvm.loop !68

18:                                               ; preds = %15
  store i32 %spec.store.select, ptr @slabs_pick_any_for_reassign.cur, align 4
  %19 = tail call i32 @pthread_mutex_unlock(ptr noundef nonnull @slabs_lock) #21
  br label %20

20:                                               ; preds = %18, %12
  %.04 = phi i32 [ %14, %12 ], [ -1, %18 ]
  ret i32 %.04
}